(dp0
I3
(dp1
(S'don'
p2
S't'
p3
S'say'
p4
tp5
I3
s(S'it'
p6
S'will'
p7
S'be'
p8
tp9
I3
s(S'looking'
p10
S'forward'
p11
S'to'
p12
tp13
I3
s(g3
S'see'
p14
S'that'
p15
tp16
I3
s(S'Thank'
p17
S'you'
p18
S'for'
p19
tp20
I4
s(S'I'
p21
S'really'
p22
S'want'
p23
tp24
I3
s(S'you'
p25
S'don'
p26
g3
tp27
I7
s(S'look'
p28
S'like'
p29
S'a'
p30
tp31
I3
s(S'if'
p32
g21
S'm'
p33
tp34
I3
s(S'love'
p35
S'it'
p36
S'when'
p37
tp38
I8
s(S'need'
p39
S'to'
p40
S'be'
p41
tp42
I3
s(S'nothing'
p43
S'to'
p44
S'do'
p45
tp46
I3
s(S'to'
p47
S'innovation'
p48
S'via'
p49
tp50
I3
s(S'if'
p51
S'you'
p52
S're'
p53
tp54
I3
s(S'don'
p55
g3
S'have'
p56
tp57
I7
s(g21
S'think'
p58
S'this'
p59
tp60
I3
s(S'hate'
p61
S'it'
p62
S'when'
p63
tp64
I3
s(S'at'
p65
S'the'
p66
S'same'
p67
tp68
I3
s(S's'
p69
S'not'
p70
S'like'
p71
tp72
I3
s(g21
S'wonder'
p73
S'how'
p74
tp75
I3
s(S'Looking'
p76
S'forward'
p77
S'to'
p78
tp79
I4
s(S'to'
p80
S'tell'
p81
S'me'
p82
tp83
I3
s(S'Don'
p84
g3
S'laugh'
p85
tp86
I3
s(S'blame'
p87
S'the'
p88
S'state'
p89
tp90
I3
s(S'Can'
p91
g3
S'believe'
p92
tp93
I4
s(S'so'
p94
S'much'
p95
S'better'
p96
tp97
I3
s(S'when'
p98
g21
S'get'
p99
tp100
I3
s(S'middle'
p101
S'of'
p102
S'the'
p103
tp104
I3
s(S'gonna'
p105
S'be'
p106
g30
tp107
I4
s(S'this'
p108
S'is'
p109
g30
tp110
I4
s(S'the'
p111
S'same'
p112
S'time'
p113
tp114
I4
s(S'my'
p115
S'life'
p116
S'is'
p117
tp118
I3
s(S'Don'
p119
g3
S'worry'
p120
tp121
I3
s(S'Well'
p122
S'that'
p123
g69
tp124
I4
s(g21
S'love'
p125
S'being'
p126
tp127
I3
s(S'we'
p128
S're'
p129
S'not'
p130
tp131
I4
s(g21
S'like'
p132
S'how'
p133
tp134
I3
s(S'you'
p135
S'in'
p136
S'the'
p137
tp138
I3
s(S'in'
p139
S'the'
p140
S'first'
p141
tp142
I3
s(S'each'
p143
S'other'
p144
S'in'
p145
tp146
I3
s(S'hard'
p147
S'on'
p148
S'yourself'
p149
tp150
I3
s(S'go'
p151
S'to'
p152
S'the'
p153
tp154
I5
s(S'think'
p155
S'we'
p156
S'can'
p157
tp158
I3
s(S'don'
p159
g3
S'understand'
p160
tp161
I3
s(S'in'
p162
S'dont'
p163
S'talk'
p164
tp165
I3
s(S'This'
p166
S'is'
p167
S'the'
p168
tp169
I3
s(S'had'
p170
g30
S'dollar'
p171
tp172
I3
s(S'this'
p173
S'isn'
p174
g3
tp175
I3
s(g21
S'd'
p176
S'like'
p177
tp178
I4
s(g88
g89
S'law'
p179
tp180
I3
s(S'very'
p181
S'very'
p182
S'very'
p183
tp184
I16
s(g21
S'want'
p185
S'to'
p186
tp187
I6
s(S'sounds'
p188
S'like'
p189
g30
tp190
I3
s(S'need'
p191
S'to'
p192
S'do'
p193
tp194
I3
s(S'If'
p195
S'you'
p196
S're'
p197
tp198
I4
s(g21
g33
S'supposed'
p199
tp200
I4
s(S'Isn'
p201
g3
S'it'
p202
tp203
I3
s(S'we'
p204
S'don'
p205
g3
tp206
I3
s(S'Go'
p207
S'to'
p208
S'to'
p209
tp210
I3
s(S'on'
p211
S'the'
p212
S'wall'
p213
tp214
I3
s(g14
g15
S'coming'
p215
tp216
I3
s(g21
S'just'
p217
S'love'
p218
tp219
I11
s(S'because'
p220
g21
g33
tp221
I4
s(S'up'
p222
S'with'
p223
g30
tp224
I4
s(S'can'
p225
g3
S'be'
p226
tp227
I3
s(g208
g209
S'send'
p228
tp229
I3
s(S'of'
p230
S'the'
p231
S'day'
p232
tp233
I3
s(S'ANOTHER'
p234
S'SERVICE'
p235
g21
tp236
I3
s(g21
S've'
p237
S'been'
p238
tp239
I3
s(g21
S've'
p240
S'ever'
p241
tp242
I3
s(g33
S'such'
p243
g30
tp244
I3
s(S'to'
p245
S'see'
p246
S'the'
p247
tp248
I6
s(S'ugly'
p249
S'last'
p250
S'year'
p251
tp252
I3
s(S'one'
p253
S'of'
p254
S'my'
p255
tp256
I3
s(S'the'
p257
S'rest'
p258
S'of'
p259
tp260
I4
s(S'to'
p261
g151
g152
tp262
I4
s(S'The'
p263
S'latest'
p264
S'Online'
p265
tp266
I3
s(S'are'
p267
S'going'
p268
S'to'
p269
tp270
I5
s(S'isn'
p271
g3
g30
tp272
I4
s(S'had'
p273
S'no'
p274
S'idea'
p275
tp276
I3
s(S'We'
p277
S'all'
p278
S'know'
p279
tp280
I3
s(S'so'
p281
S'glad'
p282
g21
tp283
I3
s(S'Color'
p284
S'me'
p285
S'surprised'
p286
tp287
I3
s(S'to'
p288
S'have'
p289
g30
tp290
I3
s(S'of'
p291
S'is'
p292
S'here'
p293
tp294
I4
s(S'that'
p295
g69
S'why'
p296
tp297
I4
s(S'if'
p298
S'MY'
p299
S'UNLAWFUL'
p300
tp301
I3
s(g21
S'haven'
p302
g3
tp303
I3
s(S'in'
p304
S'the'
p305
S'last'
p306
tp307
I4
s(S'is'
p308
S'my'
p309
S'favorite'
p310
tp311
I6
s(S'is'
p312
g30
S'great'
p313
tp314
I3
s(S'is'
p315
S'such'
p316
g30
tp317
I3
s(S'and'
p318
g21
g33
tp319
I5
s(S'Don'
p320
g3
S'be'
p321
tp322
I6
s(S'seems'
p323
S'like'
p324
g30
tp325
I3
s(S'known'
p326
S'database'
p327
g291
tp328
I6
s(S'Real'
p329
S'S'
p330
S'REALLY'
p331
tp332
I3
s(g69
S'going'
p333
S'to'
p334
tp335
I5
s(g21
S'have'
p336
S'to'
p337
tp338
I7
s(S'is'
p339
S'the'
p340
S'best'
p341
tp342
I3
s(g33
g199
S'to'
p343
tp344
I4
s(g21
S'get'
p345
S'to'
p346
tp347
I5
s(g30
S'husband'
p348
S'amp'
p349
tp350
I3
s(S'makes'
p351
S'me'
p352
S'feel'
p353
tp354
I4
s(S'Don'
p355
g3
S'you'
p356
tp357
I9
s(g299
g300
S'actions'
p358
tp359
I3
s(S'the'
p360
S'end'
p361
S'of'
p362
tp363
I3
s(g21
S'love'
p364
S'when'
p365
tp366
I6
s(g196
g197
g30
tp367
I3
s(g33
S'going'
p368
S'to'
p369
tp370
I4
s(S'at'
p371
S'least'
p372
g21
tp373
I3
s(g30
S'good'
p374
S'day'
p375
tp376
I5
s(S'That'
p377
g69
g30
tp378
I3
s(g26
g3
S'like'
p379
tp380
I6
s(g21
g273
g274
tp381
I3
s(S'can'
p382
g3
S'believe'
p383
tp384
I4
s(g217
g218
S'it'
p385
tp386
I4
s(g30
S'beautiful'
p387
S'day'
p388
tp389
I3
s(S'that'
p390
g69
S'the'
p391
tp392
I3
s(S'at'
p393
S'it'
p394
g69
tp395
I5
s(S'know'
p396
g21
g33
tp397
I3
s(S'in'
p398
S'the'
p399
S'face'
p400
tp401
I3
s(S'the'
p402
S'fact'
p403
S'that'
p404
tp405
I3
s(S'that'
p406
S'doesn'
p407
g3
tp408
I4
s(g21
S'OFFER'
p409
S'Shop'
p410
tp411
I3
s(g309
g310
S'part'
p412
tp413
I4
s(g148
g149
S'Me'
p414
tp415
I3
s(g21
S'wonder'
p416
S'if'
p417
tp418
I4
s(S'in'
p419
S'fact'
p420
S'it'
p421
tp422
I3
s(S'just'
p423
S'keeps'
p424
S'getting'
p425
tp426
I4
s(g3
S'be'
p427
S'so'
p428
tp429
I3
s(S'there'
p430
g69
S'nothing'
p431
tp432
I3
s(S'No'
p433
g419
g420
tp434
I3
s(g21
g87
g88
tp435
I3
s(S'you'
p436
S'didn'
p437
g3
tp438
I3
s(S'Not'
p439
S'at'
p440
S'all'
p441
tp442
I3
s(S'more'
p443
S'important'
p444
S'than'
p445
tp446
I3
s(g21
g33
S'so'
p447
tp448
I15
s(g265
S'Thanks'
p449
S'to'
p450
tp451
I3
s(g21
g33
S'doing'
p452
tp453
I5
s(S'It'
p454
g69
S'not'
p455
tp456
I4
s(g171
S'for'
p457
S'every'
p458
tp459
I3
s(S'my'
p460
S'latest'
p461
S'blog'
p462
tp463
I3
s(g421
S'could'
p464
S'cost'
p465
tp466
I3
s(S'SARCASM'
p467
S'IS'
p468
S'JUST'
p469
tp470
I3
s(g30
S'really'
p471
S'good'
p472
tp473
I3
s(S'of'
p474
S'my'
p475
S'life'
p476
tp477
I3
s(g21
g33
S'not'
p478
tp479
I10
s(g21
g33
g368
tp480
I3
s(g3
S'know'
p481
S'that'
p482
tp483
I3
s(S'seems'
p484
S'to'
p485
S'be'
p486
tp487
I4
s(g21
g33
S'shocked'
p488
tp489
I9
s(S'won'
p490
g3
S'be'
p491
tp492
I3
s(S'in'
p493
S'the'
p494
S'world'
p495
tp496
I11
s(S'Can'
p497
g3
S'wait'
p498
tp499
I8
s(g21
S'have'
p500
g30
tp501
I6
s(g21
g55
g3
tp502
I23
s(g21
g33
S'sure'
p503
tp504
I10
s(S'As'
p505
g30
g348
tp506
I3
s(S'saw'
p507
S'that'
p508
S'coming'
p509
tp510
I3
s(S'it'
p511
g69
S'not'
p512
tp513
I4
s(S'CURE'
p514
S'FOR'
p515
S'RACISM'
p516
tp517
I34
s(S'do'
p518
S'u'
p519
S'ever'
p520
tp521
I4
s(S'biggest'
p522
g326
g327
tp523
I6
s(g264
g265
g449
tp524
I3
s(S'didn'
p525
g3
S'get'
p526
tp527
I3
s(S'done'
p528
S'with'
p529
S'done'
p530
tp531
I4
s(g3
S'you'
p532
S'just'
p533
tp534
I7
s(S'so'
p535
S'much'
p536
S'that'
p537
tp538
I3
s(S'when'
p539
g21
g33
tp540
I3
s(S'can'
p541
g3
S'wait'
p542
tp543
I6
s(g21
S'think'
p544
S'we'
p545
tp546
I3
s(S'You'
p547
S'know'
p548
S'it'
p549
tp550
I4
s(S'going'
p551
S'to'
p552
S'be'
p553
tp554
I7
s(g293
S'Great'
p555
S'via'
p556
tp557
I4
s(S'didn'
p558
g3
g14
tp559
I3
s(S'out'
p560
S'of'
p561
S'the'
p562
tp563
I4
s(g465
S'you'
p564
S'big'
p565
tp566
I3
s(S'trying'
p567
S'to'
p568
S'get'
p569
tp570
I3
s(S'the'
p571
S'world'
p572
S'is'
p573
tp574
I3
s(g529
g530
S'with'
p575
tp576
I4
s(g49
g433
g419
tp577
I3
s(g163
g164
S'to'
p578
tp579
I4
s(S'so'
p580
g249
g250
tp581
I3
s(S'is'
p582
S'going'
p583
S'to'
p584
tp585
I10
s(S'it'
p586
g69
g30
tp587
I6
s(S'So'
p588
S'glad'
p589
g21
tp590
I4
s(g3
g85
S'alone'
p591
tp592
I3
s(S'Just'
p593
S'what'
p594
g21
tp595
I3
s(g21
g33
S'really'
p596
tp597
I3
s(g21
g33
g30
tp598
I5
s(g30
g171
g457
tp599
I3
s(S'A'
p600
g514
g515
tp601
I34
s(g30
S'part'
p602
S'of'
p603
tp604
I3
s(S'Fibromyalgia'
p605
g329
g330
tp606
I3
s(g404
g21
g33
tp607
I3
s(g428
g147
g148
tp608
I3
s(S'as'
p609
S'long'
p610
S'as'
p611
tp612
I3
s(S'The'
p613
g522
g326
tp614
I6
s(g412
S'of'
p615
S'the'
p616
tp617
I3
s(g21
g33
S'at'
p618
tp619
I3
s(S'they'
p620
S'do'
p621
S'it'
p622
tp623
I3
s(g292
g293
g555
tp624
I6
s(S'It'
p625
g69
g30
tp626
I3
s(S'Yeah'
p627
S'it'
p628
g69
tp629
I3
s(S'for'
p630
S'every'
p631
S'time'
p632
tp633
I4
s(g21
g382
g3
tp634
I22
s(S'why'
p635
S'don'
p636
g3
tp637
I3
s(S'the'
p638
S'last'
p639
S'time'
p640
tp641
I3
s(g21
S'need'
p642
S'to'
p643
tp644
I4
s(S'to'
p645
S'do'
p646
S'with'
p647
tp648
I5
s(S'what'
p649
g21
g33
tp650
I3
s(S'don'
p651
g3
S'even'
p652
tp653
I3
s(S'My'
p654
S'favorite'
p655
S'thing'
p656
tp657
I3
s(S'to'
p658
S'get'
p659
g30
tp660
I5
s(S'they'
p661
S'don'
p662
g3
tp663
I4
s(S'always'
p664
S'leads'
p665
g47
tp666
I3
s(g348
g349
S'father'
p667
tp668
I3
s(g21
g33
S'just'
p669
tp670
I5
s(g21
g33
g243
tp671
I3
s(S'to'
p672
S'see'
p673
S'how'
p674
tp675
I3
s(g21
S'wish'
p676
g21
tp677
I4
s(g667
g298
g299
tp678
I3
s(S'can'
p679
g3
S'tell'
p680
tp681
I3
s(S'Bill'
p682
S'O'
p683
S'Reilly'
p684
tp685
I5
s(S'Is'
p686
g605
g329
tp687
I3
s(S'my'
p688
S'way'
p689
S'to'
p690
tp691
I3
s(S'gt'
p692
S'gt'
p693
S'gt'
p694
tp695
I3
s(S'it'
p696
g69
S'the'
p697
tp698
I5
s(g21
S've'
p699
S'seen'
p700
tp701
I3
s(S'want'
p702
S'to'
p703
S'be'
p704
tp705
I4
s(S'BREAKING'
p706
g600
g514
tp707
I34
s(g176
S'like'
p708
S'to'
p709
tp710
I3
s(g424
g425
S'better'
p711
tp712
I3
s(S'was'
p713
g580
g249
tp714
I3
s(g21
S'll'
p715
S'be'
p716
tp717
I3
s(g21
S'didn'
p718
g3
tp719
I7
s(S'Would'
p720
S'that'
p721
S'be'
p722
tp723
I3
s(S'he'
p724
S'wasn'
p725
g3
tp726
I3
s(S'you'
p727
S'can'
p728
g3
tp729
I4
s(g718
g3
g481
tp730
I8
s(S'when'
p731
S'you'
p732
S're'
p733
tp734
I3
s(S'this'
p735
S'is'
p736
S'the'
p737
tp738
I6
s(g21
S'love'
p739
S'that'
p740
tp741
I3
s(S'that'
p742
S'make'
p743
S'me'
p744
tp745
I3
s(S'people'
p746
S'don'
p747
g3
tp748
I3
s(g30
S'great'
p749
S'job'
p750
tp751
I5
s(g21
S'love'
p752
S'how'
p753
tp754
I6
s(S'When'
p755
S'you'
p756
S're'
p757
tp758
I3
s(g21
S'was'
p759
S'so'
p760
tp761
I4
s(S'it'
p762
S'doesn'
p763
g3
tp764
I3
s(g3
g56
S'to'
p765
tp766
I3
s(S'you'
p767
S'haven'
p768
g3
tp769
I4
s(g3
g498
S'to'
p770
tp771
I7
s(S'What'
p772
g30
S'surprise'
p773
tp774
I3
s(g33
g281
g282
tp775
I5
s(g69
S'fault'
p776
S'that'
p777
tp778
I3
s(g464
g465
g564
tp779
I3
s(S'Go'
p780
S'to'
p781
S'target'
p782
tp783
I5
s(S'Nice'
p784
S'to'
p785
S'see'
p786
tp787
I3
s(S'look'
p788
S'at'
p789
S'the'
p790
tp791
I4
s(S'but'
p792
S'at'
p793
S'least'
p794
tp795
I5
s(S'is'
p796
S'all'
p797
g21
tp798
I4
s(S'the'
p799
S'White'
p800
S'House'
p801
tp802
I3
s(S'If'
p803
g767
g768
tp804
I3
s(S'there'
p805
g69
g30
tp806
I3
s(S'wow'
p807
g21
g713
tp808
I3
s(S'amp'
p809
g21
g33
tp810
I3
s(g21
g33
S'still'
p811
tp812
I3
s(g420
g421
g464
tp813
I3
s(g468
g469
g234
tp814
I3
s(g797
g21
S'have'
p815
tp816
I4
s(g310
g412
g615
tp817
I4
s(S'Shocked'
p818
g21
S'tell'
p819
tp820
I3
s(g327
g291
g292
tp821
I4
s(S'the'
p822
S'U'
p823
g330
tp824
I3
s(S'is'
p825
S'the'
p826
S'most'
p827
tp828
I4
s(g349
g667
g298
tp829
I3
s(S'love'
p830
g98
g21
tp831
I4
s(g235
g21
g409
tp832
I3
s(g469
g234
g235
tp833
I3
s(S'be'
p834
g30
S'good'
p835
tp836
I5
s(S'know'
p837
S'it'
p838
g69
tp839
I4
s(S'who'
p840
S'don'
p841
g3
tp842
I4
s(S'Couldn'
p843
g3
S'have'
p844
tp845
I3
s(g69
g105
g106
tp846
I5
s(S'fact'
p847
S'that'
p848
g21
tp849
I3
s(S'to'
p850
S'be'
p851
g30
tp852
I7
s(g48
g49
g433
tp853
I3
s(g21
g819
S'you'
p854
tp855
I3
s(g21
S'am'
p856
S'sure'
p857
tp858
I3
s(g21
S'wonder'
p859
S'why'
p860
tp861
I3
s(g665
g47
g48
tp862
I3
s(g69
S'why'
p863
S'they'
p864
tp865
I3
s(g164
g578
S'me'
p866
tp867
I6
s(g564
g565
S'time'
p868
tp869
I3
s(g427
g428
g147
tp870
I3
s(g3
S'want'
p871
S'to'
p872
tp873
I3
s(S'Thanks'
p874
S'for'
p875
S'the'
p876
tp877
I3
s(S'Isn'
p878
g3
S'that'
p879
tp880
I3
s(S'don'
p881
g3
S'know'
p882
tp883
I12
ssI4
(dp884
(g263
g264
g265
g449
tp885
I3
s(g522
g326
g327
g291
tp886
I6
s(g171
g457
g458
S'time'
p887
tp888
I3
s(g21
S'love'
p889
S'when'
p890
g21
tp891
I3
s(g613
g522
g326
g327
tp892
I6
s(g21
g33
g199
g343
tp893
I4
s(g21
g273
g274
g275
tp894
I3
s(g21
g713
g580
g249
tp895
I3
s(S'is'
p896
S'going'
p897
S'to'
p898
S'be'
p899
tp900
I4
s(g419
g420
g421
g464
tp901
I3
s(g21
g55
g3
g56
tp902
I3
s(g713
g580
g249
g250
tp903
I3
s(g21
g881
g3
g882
tp904
I7
s(g33
g281
g282
g21
tp905
I3
s(g3
g14
g15
g215
tp906
I3
s(g600
g514
g515
g516
tp907
I34
s(g423
g424
g425
g711
tp908
I3
s(g21
g87
g88
g89
tp909
I3
s(S'Don'
p910
g3
g427
g428
tp911
I3
s(g291
g292
g293
g555
tp912
I4
s(g464
g465
g564
g565
tp913
I3
s(g605
g329
g330
g331
tp914
I3
s(g163
g164
g578
g866
tp915
I4
s(g21
g382
g3
g383
tp916
I4
s(g25
g26
g3
g379
tp917
I3
s(g580
g249
g250
g251
tp918
I3
s(g665
g47
g48
g49
tp919
I3
s(S'Don'
p920
g3
g532
g533
tp921
I5
s(g421
g464
g465
g564
tp922
I3
s(g162
g163
g164
g578
tp923
I3
s(g803
g767
g768
g3
tp924
I3
s(g796
g797
g21
g815
tp925
I4
s(g48
g49
g433
g419
tp926
I3
s(g468
g469
g234
g235
tp927
I3
s(g706
g600
g514
g515
tp928
I34
s(g21
g33
g368
g369
tp929
I3
s(g469
g234
g235
g21
tp930
I3
s(g309
g310
g412
g615
tp931
I4
s(g467
g468
g469
g234
tp932
I3
s(g326
g327
g291
g292
tp933
I4
s(g84
g3
g85
g591
tp934
I3
s(g21
g718
g3
g481
tp935
I3
s(g47
g48
g49
g433
tp936
I3
s(g30
g348
g349
g667
tp937
I3
s(g69
g105
g106
g30
tp938
I4
s(g433
g419
g420
g421
tp939
I3
s(g327
g291
g292
g293
tp940
I4
s(g21
g33
g243
g30
tp941
I3
s(g264
g265
g449
g450
tp942
I3
s(g207
g208
g209
g228
tp943
I3
s(g234
g235
g21
g409
tp944
I3
s(g181
g182
g183
S'very'
p945
tp946
I15
s(g21
g176
g708
g709
tp947
I3
s(g686
g605
g329
g330
tp948
I3
s(g21
g33
g281
g282
tp949
I5
s(g664
g665
g47
g48
tp950
I3
s(g87
g88
g89
g179
tp951
I3
s(g420
g421
g464
g465
tp952
I3
s(g428
g147
g148
g149
tp953
I3
s(g349
g667
g298
g299
tp954
I3
s(g21
g217
g218
g385
tp955
I3
s(S'be'
p956
g30
g374
g375
tp957
I3
s(g49
g433
g419
g420
tp958
I3
s(g292
g293
g555
g556
tp959
I4
s(g528
g529
g530
g575
tp960
I4
s(g298
g299
g300
g358
tp961
I3
s(g21
g679
g3
g680
tp962
I3
s(g348
g349
g667
g298
tp963
I3
s(g147
g148
g149
g414
tp964
I3
s(g65
g66
g67
S'time'
p965
tp966
I3
s(g818
g21
g819
g854
tp967
I3
s(g427
g428
g147
g148
tp968
I3
s(g30
g171
g457
g458
tp969
I3
s(g235
g21
g409
g410
tp970
I3
s(g497
g3
g498
g770
tp971
I5
s(g667
g298
g299
g300
tp972
I3
s(g465
g564
g565
g868
tp973
I3
s(S'just'
p974
g35
g36
g37
tp975
I3
s(g718
g3
g481
g482
tp976
I3
s(g505
g30
g348
g349
tp977
I3
s(g529
g530
g575
S'done'
p978
tp979
I3
s(g807
g21
g713
g580
tp980
I3
s(g3
g427
g428
g147
tp981
I3
s(g170
g30
g171
g457
tp982
I3
ssI5
(dp983
(g807
g21
g713
g580
g249
tp984
I3
s(g664
g665
g47
g48
g49
tp985
I3
s(g421
g464
g465
g564
g565
tp986
I3
s(g433
g419
g420
g421
g464
tp987
I3
s(g349
g667
g298
g299
g300
tp988
I3
s(g419
g420
g421
g464
g465
tp989
I3
s(g505
g30
g348
g349
g667
tp990
I3
s(g30
g348
g349
g667
g298
tp991
I3
s(g686
g605
g329
g330
g331
tp992
I3
s(g291
g292
g293
g555
g556
tp993
I3
s(g21
g33
g281
g282
g21
tp994
I3
s(g529
g530
g575
g978
S'with'
p995
tp996
I3
s(g3
g427
g428
g147
g148
tp997
I3
s(g427
g428
g147
g148
g149
tp998
I3
s(g428
g147
g148
g149
g414
tp999
I3
s(g327
g291
g292
g293
g555
tp1000
I4
s(g468
g469
g234
g235
g21
tp1001
I3
s(g348
g349
g667
g298
g299
tp1002
I3
s(g21
g713
g580
g249
g250
tp1003
I3
s(g30
g171
g457
g458
g887
tp1004
I3
s(g234
g235
g21
g409
g410
tp1005
I3
s(g528
g529
g530
g575
g978
tp1006
I3
s(g667
g298
g299
g300
g358
tp1007
I3
s(g326
g327
g291
g292
g293
tp1008
I4
s(g713
g580
g249
g250
g251
tp1009
I3
s(g48
g49
g433
g419
g420
tp1010
I3
s(g706
g600
g514
g515
g516
tp1011
I34
s(g170
g30
g171
g457
g458
tp1012
I3
s(g181
g182
g183
g945
S'very'
p1013
tp1014
I14
s(g910
g3
g427
g428
g147
tp1015
I3
s(g21
g718
g3
g481
g482
tp1016
I3
s(g613
g522
g326
g327
g291
tp1017
I6
s(g665
g47
g48
g49
g433
tp1018
I3
s(g162
g163
g164
g578
g866
tp1019
I3
s(g467
g468
g469
g234
g235
tp1020
I3
s(g263
g264
g265
g449
g450
tp1021
I3
s(g47
g48
g49
g433
g419
tp1022
I3
s(g469
g234
g235
g21
g409
tp1023
I3
s(g21
g87
g88
g89
g179
tp1024
I3
s(g464
g465
g564
g565
g868
tp1025
I3
s(g522
g326
g327
g291
g292
tp1026
I4
s(g49
g433
g419
g420
g421
tp1027
I3
s(g420
g421
g464
g465
g564
tp1028
I3
ssI6
(dp1029
(g49
g433
g419
g420
g421
g464
tp1030
I3
s(g47
g48
g49
g433
g419
g420
tp1031
I3
s(g664
g665
g47
g48
g49
g433
tp1032
I3
s(g522
g326
g327
g291
g292
g293
tp1033
I4
s(g349
g667
g298
g299
g300
g358
tp1034
I3
s(g170
g30
g171
g457
g458
g887
tp1035
I3
s(g420
g421
g464
g465
g564
g565
tp1036
I3
s(g419
g420
g421
g464
g465
g564
tp1037
I3
s(g433
g419
g420
g421
g464
g465
tp1038
I3
s(g613
g522
g326
g327
g291
g292
tp1039
I4
s(g427
g428
g147
g148
g149
g414
tp1040
I3
s(g421
g464
g465
g564
g565
g868
tp1041
I3
s(g467
g468
g469
g234
g235
g21
tp1042
I3
s(g48
g49
g433
g419
g420
g421
tp1043
I3
s(g505
g30
g348
g349
g667
g298
tp1044
I3
s(g807
g21
g713
g580
g249
g250
tp1045
I3
s(g30
g348
g349
g667
g298
g299
tp1046
I3
s(g21
g713
g580
g249
g250
g251
tp1047
I3
s(g327
g291
g292
g293
g555
g556
tp1048
I3
s(g181
g182
g183
g945
g1013
S'very'
p1049
tp1050
I13
s(g468
g469
g234
g235
g21
g409
tp1051
I3
s(g528
g529
g530
g575
g978
g995
tp1052
I3
s(g3
g427
g428
g147
g148
g149
tp1053
I3
s(g665
g47
g48
g49
g433
g419
tp1054
I3
s(g910
g3
g427
g428
g147
g148
tp1055
I3
s(g326
g327
g291
g292
g293
g555
tp1056
I4
s(g348
g349
g667
g298
g299
g300
tp1057
I3
s(g469
g234
g235
g21
g409
g410
tp1058
I3
ssI7
(dp1059
(g48
g49
g433
g419
g420
g421
g464
tp1060
I3
s(g419
g420
g421
g464
g465
g564
g565
tp1061
I3
s(g30
g348
g349
g667
g298
g299
g300
tp1062
I3
s(g467
g468
g469
g234
g235
g21
g409
tp1063
I3
s(g348
g349
g667
g298
g299
g300
g358
tp1064
I3
s(g3
g427
g428
g147
g148
g149
g414
tp1065
I3
s(g433
g419
g420
g421
g464
g465
g564
tp1066
I3
s(g181
g182
g183
g945
g1013
g1049
S'very'
p1067
tp1068
I12
s(g910
g3
g427
g428
g147
g148
g149
tp1069
I3
s(g522
g326
g327
g291
g292
g293
g555
tp1070
I4
s(g47
g48
g49
g433
g419
g420
g421
tp1071
I3
s(g468
g469
g234
g235
g21
g409
g410
tp1072
I3
s(g420
g421
g464
g465
g564
g565
g868
tp1073
I3
s(g807
g21
g713
g580
g249
g250
g251
tp1074
I3
s(g326
g327
g291
g292
g293
g555
g556
tp1075
I3
s(g49
g433
g419
g420
g421
g464
g465
tp1076
I3
s(g505
g30
g348
g349
g667
g298
g299
tp1077
I3
s(g664
g665
g47
g48
g49
g433
g419
tp1078
I3
s(g665
g47
g48
g49
g433
g419
g420
tp1079
I3
s(g613
g522
g326
g327
g291
g292
g293
tp1080
I4
ssI8
(dp1081
(g48
g49
g433
g419
g420
g421
g464
g465
tp1082
I3
s(g49
g433
g419
g420
g421
g464
g465
g564
tp1083
I3
s(g181
g182
g183
g945
g1013
g1049
g1067
S'very'
p1084
tp1085
I11
s(g30
g348
g349
g667
g298
g299
g300
g358
tp1086
I3
s(g665
g47
g48
g49
g433
g419
g420
g421
tp1087
I3
s(g419
g420
g421
g464
g465
g564
g565
g868
tp1088
I3
s(g910
g3
g427
g428
g147
g148
g149
g414
tp1089
I3
s(g505
g30
g348
g349
g667
g298
g299
g300
tp1090
I3
s(g47
g48
g49
g433
g419
g420
g421
g464
tp1091
I3
s(g522
g326
g327
g291
g292
g293
g555
g556
tp1092
I3
s(g664
g665
g47
g48
g49
g433
g419
g420
tp1093
I3
s(g613
g522
g326
g327
g291
g292
g293
g555
tp1094
I4
s(g433
g419
g420
g421
g464
g465
g564
g565
tp1095
I3
s(g467
g468
g469
g234
g235
g21
g409
g410
tp1096
I3
ssI9
(dp1097
(g665
g47
g48
g49
g433
g419
g420
g421
g464
tp1098
I3
s(g664
g665
g47
g48
g49
g433
g419
g420
g421
tp1099
I3
s(g49
g433
g419
g420
g421
g464
g465
g564
g565
tp1100
I3
s(g433
g419
g420
g421
g464
g465
g564
g565
g868
tp1101
I3
s(g613
g522
g326
g327
g291
g292
g293
g555
g556
tp1102
I3
s(g181
g182
g183
g945
g1013
g1049
g1067
g1084
S'very'
p1103
tp1104
I10
s(g505
g30
g348
g349
g667
g298
g299
g300
g358
tp1105
I3
s(g48
g49
g433
g419
g420
g421
g464
g465
g564
tp1106
I3
s(g47
g48
g49
g433
g419
g420
g421
g464
g465
tp1107
I3
ssI10
(dp1108
(g47
g48
g49
g433
g419
g420
g421
g464
g465
g564
tp1109
I3
s(g49
g433
g419
g420
g421
g464
g465
g564
g565
g868
tp1110
I3
s(g181
g182
g183
g945
g1013
g1049
g1067
g1084
g1103
S'very'
p1111
tp1112
I9
s(g665
g47
g48
g49
g433
g419
g420
g421
g464
g465
tp1113
I3
s(g664
g665
g47
g48
g49
g433
g419
g420
g421
g464
tp1114
I3
s(g48
g49
g433
g419
g420
g421
g464
g465
g564
g565
tp1115
I3
ss.