(lp0
S'don t say'
p1
aS'it will be'
p2
aS'looking forward to'
p3
aS't see that'
p4
aS'Thank you for'
p5
aS'I really want'
p6
aS'you don t'
p7
aS'look like a'
p8
aS'if I m'
p9
aS'love it when'
p10
aS'need to be'
p11
aS'nothing to do'
p12
aS'to innovation via'
p13
aS'if you re'
p14
aS'don t have'
p15
aS'I think this'
p16
aS'hate it when'
p17
aS'at the same'
p18
aS's not like'
p19
aS'I wonder how'
p20
aS'Looking forward to'
p21
aS'to tell me'
p22
aS'Don t laugh'
p23
aS'blame the state'
p24
aS'Can t believe'
p25
aS'so much better'
p26
aS'when I get'
p27
aS'middle of the'
p28
aS'gonna be a'
p29
aS'this is a'
p30
aS'the same time'
p31
aS'my life is'
p32
aS'Don t worry'
p33
aS'Well that s'
p34
aS'I love being'
p35
aS'we re not'
p36
aS'I like how'
p37
aS'you in the'
p38
aS'in the first'
p39
aS'each other in'
p40
aS'hard on yourself'
p41
aS'go to the'
p42
aS'think we can'
p43
aS'don t understand'
p44
aS'in dont talk'
p45
aS'This is the'
p46
aS'had a dollar'
p47
aS'this isn t'
p48
aS'I d like'
p49
aS'the state law'
p50
aS'very very very'
p51
aS'I want to'
p52
aS'sounds like a'
p53
aS'need to do'
p54
aS'If you re'
p55
aS'I m supposed'
p56
aS'Isn t it'
p57
aS'we don t'
p58
aS'Go to to'
p59
aS'on the wall'
p60
aS'see that coming'
p61
aS'I just love'
p62
aS'because I m'
p63
aS'up with a'
p64
aS'can t be'
p65
aS'to to send'
p66
aS'of the day'
p67
aS'ANOTHER SERVICE I'
p68
aS'I ve been'
p69
aS'I ve ever'
p70
aS'm such a'
p71
aS'to see the'
p72
aS'ugly last year'
p73
aS'one of my'
p74
aS'the rest of'
p75
aS'to go to'
p76
aS'The latest Online'
p77
aS'are going to'
p78
aS'isn t a'
p79
aS'had no idea'
p80
aS'We all know'
p81
aS'so glad I'
p82
aS'Color me surprised'
p83
aS'to have a'
p84
aS'of is here'
p85
aS'that s why'
p86
aS'if MY UNLAWFUL'
p87
aS'I haven t'
p88
aS'in the last'
p89
aS'is my favorite'
p90
aS'is a great'
p91
aS'is such a'
p92
aS'and I m'
p93
aS'Don t be'
p94
aS'seems like a'
p95
aS'known database of'
p96
aS'Real S REALLY'
p97
aS's going to'
p98
aS'I have to'
p99
aS'is the best'
p100
aS'm supposed to'
p101
aS'I get to'
p102
aS'a husband amp'
p103
aS'makes me feel'
p104
aS'Don t you'
p105
aS'MY UNLAWFUL actions'
p106
aS'the end of'
p107
aS'I love when'
p108
aS'you re a'
p109
aS'm going to'
p110
aS'at least I'
p111
aS'a good day'
p112
aS'That s a'
p113
aS'don t like'
p114
aS'I had no'
p115
aS'can t believe'
p116
aS'just love it'
p117
aS'a beautiful day'
p118
aS'that s the'
p119
aS'at it s'
p120
aS'know I m'
p121
aS'in the face'
p122
aS'the fact that'
p123
aS'that doesn t'
p124
aS'I OFFER Shop'
p125
aS'my favorite part'
p126
aS'on yourself Me'
p127
aS'I wonder if'
p128
aS'in fact it'
p129
aS'just keeps getting'
p130
aS't be so'
p131
aS'there s nothing'
p132
aS'No in fact'
p133
aS'I blame the'
p134
aS'you didn t'
p135
aS'Not at all'
p136
aS'more important than'
p137
aS'I m so'
p138
aS'Online Thanks to'
p139
aS'I m doing'
p140
aS'It s not'
p141
aS'dollar for every'
p142
aS'my latest blog'
p143
aS'it could cost'
p144
aS'SARCASM IS JUST'
p145
aS'a really good'
p146
aS'of my life'
p147
aS'I m not'
p148
aS'I m going'
p149
aS't know that'
p150
aS'seems to be'
p151
aS'I m shocked'
p152
aS'won t be'
p153
aS'in the world'
p154
aS'Can t wait'
p155
aS'I have a'
p156
aS'I don t'
p157
aS'I m sure'
p158
aS'As a husband'
p159
aS'saw that coming'
p160
aS'it s not'
p161
aS'CURE FOR RACISM'
p162
aS'do u ever'
p163
aS'biggest known database'
p164
aS'latest Online Thanks'
p165
aS'didn t get'
p166
aS'done with done'
p167
aS't you just'
p168
aS'so much that'
p169
aS'when I m'
p170
aS'can t wait'
p171
aS'I think we'
p172
aS'You know it'
p173
aS'going to be'
p174
aS'here Great via'
p175
aS'didn t see'
p176
aS'out of the'
p177
aS'cost you big'
p178
aS'trying to get'
p179
aS'the world is'
p180
aS'with done with'
p181
aS'via No in'
p182
aS'dont talk to'
p183
aS'so ugly last'
p184
aS'is going to'
p185
aS'it s a'
p186
aS'So glad I'
p187
aS't laugh alone'
p188
aS'Just what I'
p189
aS'I m really'
p190
aS'I m a'
p191
aS'a dollar for'
p192
aS'A CURE FOR'
p193
aS'a part of'
p194
aS'Fibromyalgia Real S'
p195
aS'that I m'
p196
aS'so hard on'
p197
aS'as long as'
p198
aS'The biggest known'
p199
aS'part of the'
p200
aS'I m at'
p201
aS'they do it'
p202
aS'is here Great'
p203
aS'It s a'
p204
aS'Yeah it s'
p205
aS'for every time'
p206
aS'I can t'
p207
aS'why don t'
p208
aS'the last time'
p209
aS'I need to'
p210
aS'to do with'
p211
aS'what I m'
p212
aS'don t even'
p213
aS'My favorite thing'
p214
aS'to get a'
p215
aS'they don t'
p216
aS'always leads to'
p217
aS'husband amp father'
p218
aS'I m just'
p219
aS'I m such'
p220
aS'to see how'
p221
aS'I wish I'
p222
aS'father if MY'
p223
aS'can t tell'
p224
aS'Bill O Reilly'
p225
aS'Is Fibromyalgia Real'
p226
aS'my way to'
p227
aS'gt gt gt'
p228
aS'it s the'
p229
aS'I ve seen'
p230
aS'want to be'
p231
aS'BREAKING A CURE'
p232
aS'd like to'
p233
aS'keeps getting better'
p234
aS'was so ugly'
p235
aS'I ll be'
p236
aS'I didn t'
p237
aS'Would that be'
p238
aS'he wasn t'
p239
aS'you can t'
p240
aS'didn t know'
p241
aS'when you re'
p242
aS'this is the'
p243
aS'I love that'
p244
aS'that make me'
p245
aS'people don t'
p246
aS'a great job'
p247
aS'I love how'
p248
aS'When you re'
p249
aS'I was so'
p250
aS'it doesn t'
p251
aS't have to'
p252
aS'you haven t'
p253
aS't wait to'
p254
aS'What a surprise'
p255
aS'm so glad'
p256
aS's fault that'
p257
aS'could cost you'
p258
aS'Go to target'
p259
aS'Nice to see'
p260
aS'look at the'
p261
aS'but at least'
p262
aS'is all I'
p263
aS'the White House'
p264
aS'If you haven'
p265
aS'there s a'
p266
aS'wow I was'
p267
aS'amp I m'
p268
aS'I m still'
p269
aS'fact it could'
p270
aS'IS JUST ANOTHER'
p271
aS'all I have'
p272
aS'favorite part of'
p273
aS'Shocked I tell'
p274
aS'database of is'
p275
aS'the U S'
p276
aS'is the most'
p277
aS'amp father if'
p278
aS'love when I'
p279
aS'SERVICE I OFFER'
p280
aS'JUST ANOTHER SERVICE'
p281
aS'be a good'
p282
aS'know it s'
p283
aS'who don t'
p284
aS'Couldn t have'
p285
aS's gonna be'
p286
aS'fact that I'
p287
aS'to be a'
p288
aS'innovation via No'
p289
aS'I tell you'
p290
aS'I am sure'
p291
aS'I wonder why'
p292
aS'leads to innovation'
p293
aS's why they'
p294
aS'talk to me'
p295
aS'you big time'
p296
aS'be so hard'
p297
aS't want to'
p298
aS'Thanks for the'
p299
aS'Isn t that'
p300
aS'don t know'
p301
aS'The latest Online Thanks'
p302
aS'biggest known database of'
p303
aS'dollar for every time'
p304
aS'I love when I'
p305
aS'The biggest known database'
p306
aS'I m supposed to'
p307
aS'I had no idea'
p308
aS'I was so ugly'
p309
aS'is going to be'
p310
aS'in fact it could'
p311
aS'I don t have'
p312
aS'was so ugly last'
p313
aS'I don t know'
p314
aS'm so glad I'
p315
aS't see that coming'
p316
aS'A CURE FOR RACISM'
p317
aS'just keeps getting better'
p318
aS'I blame the state'
p319
aS'Don t be so'
p320
aS'of is here Great'
p321
aS'could cost you big'
p322
aS'Fibromyalgia Real S REALLY'
p323
aS'dont talk to me'
p324
aS'I can t believe'
p325
aS'you don t like'
p326
aS'so ugly last year'
p327
aS'leads to innovation via'
p328
aS'Don t you just'
p329
aS'it could cost you'
p330
aS'in dont talk to'
p331
aS'If you haven t'
p332
aS'is all I have'
p333
aS'innovation via No in'
p334
aS'IS JUST ANOTHER SERVICE'
p335
aS'BREAKING A CURE FOR'
p336
aS'I m going to'
p337
aS'JUST ANOTHER SERVICE I'
p338
aS'my favorite part of'
p339
aS'SARCASM IS JUST ANOTHER'
p340
aS'known database of is'
p341
aS'Don t laugh alone'
p342
aS'I didn t know'
p343
aS'to innovation via No'
p344
aS'a husband amp father'
p345
aS's gonna be a'
p346
aS'No in fact it'
p347
aS'database of is here'
p348
aS'I m such a'
p349
aS'latest Online Thanks to'
p350
aS'Go to to send'
p351
aS'ANOTHER SERVICE I OFFER'
p352
aS'very very very very'
p353
aS'I d like to'
p354
aS'Is Fibromyalgia Real S'
p355
aS'I m so glad'
p356
aS'always leads to innovation'
p357
aS'blame the state law'
p358
aS'fact it could cost'
p359
aS'so hard on yourself'
p360
aS'amp father if MY'
p361
aS'I just love it'
p362
aS'be a good day'
p363
aS'via No in fact'
p364
aS'is here Great via'
p365
aS'done with done with'
p366
aS'if MY UNLAWFUL actions'
p367
aS'I can t tell'
p368
aS'husband amp father if'
p369
aS'hard on yourself Me'
p370
aS'at the same time'
p371
aS'Shocked I tell you'
p372
aS'be so hard on'
p373
aS'a dollar for every'
p374
aS'SERVICE I OFFER Shop'
p375
aS'Can t wait to'
p376
aS'father if MY UNLAWFUL'
p377
aS'cost you big time'
p378
aS'just love it when'
p379
aS'didn t know that'
p380
aS'As a husband amp'
p381
aS'with done with done'
p382
aS'wow I was so'
p383
aS't be so hard'
p384
aS'had a dollar for'
p385
aS'wow I was so ugly'
p386
aS'always leads to innovation via'
p387
aS'it could cost you big'
p388
aS'No in fact it could'
p389
aS'amp father if MY UNLAWFUL'
p390
aS'in fact it could cost'
p391
aS'As a husband amp father'
p392
aS'a husband amp father if'
p393
aS'Is Fibromyalgia Real S REALLY'
p394
aS'of is here Great via'
p395
aS'I m so glad I'
p396
aS'with done with done with'
p397
aS't be so hard on'
p398
aS'be so hard on yourself'
p399
aS'so hard on yourself Me'
p400
aS'database of is here Great'
p401
aS'IS JUST ANOTHER SERVICE I'
p402
aS'husband amp father if MY'
p403
aS'I was so ugly last'
p404
aS'a dollar for every time'
p405
aS'ANOTHER SERVICE I OFFER Shop'
p406
aS'done with done with done'
p407
aS'father if MY UNLAWFUL actions'
p408
aS'known database of is here'
p409
aS'was so ugly last year'
p410
aS'innovation via No in fact'
p411
aS'BREAKING A CURE FOR RACISM'
p412
aS'had a dollar for every'
p413
aS'very very very very very'
p414
aS'Don t be so hard'
p415
aS'I didn t know that'
p416
aS'The biggest known database of'
p417
aS'leads to innovation via No'
p418
aS'in dont talk to me'
p419
aS'SARCASM IS JUST ANOTHER SERVICE'
p420
aS'The latest Online Thanks to'
p421
aS'to innovation via No in'
p422
aS'JUST ANOTHER SERVICE I OFFER'
p423
aS'I blame the state law'
p424
aS'could cost you big time'
p425
aS'biggest known database of is'
p426
aS'via No in fact it'
p427
aS'fact it could cost you'
p428
aS'via No in fact it could'
p429
aS'to innovation via No in fact'
p430
aS'always leads to innovation via No'
p431
aS'biggest known database of is here'
p432
aS'amp father if MY UNLAWFUL actions'
p433
aS'had a dollar for every time'
p434
aS'fact it could cost you big'
p435
aS'in fact it could cost you'
p436
aS'No in fact it could cost'
p437
aS'The biggest known database of is'
p438
aS'be so hard on yourself Me'
p439
aS'it could cost you big time'
p440
aS'SARCASM IS JUST ANOTHER SERVICE I'
p441
aS'innovation via No in fact it'
p442
aS'As a husband amp father if'
p443
aS'wow I was so ugly last'
p444
aS'a husband amp father if MY'
p445
aS'I was so ugly last year'
p446
aS'database of is here Great via'
p447
aS'very very very very very very'
p448
aS'IS JUST ANOTHER SERVICE I OFFER'
p449
aS'done with done with done with'
p450
aS't be so hard on yourself'
p451
aS'leads to innovation via No in'
p452
aS'Don t be so hard on'
p453
aS'known database of is here Great'
p454
aS'husband amp father if MY UNLAWFUL'
p455
aS'JUST ANOTHER SERVICE I OFFER Shop'
p456
aS'innovation via No in fact it could'
p457
aS'in fact it could cost you big'
p458
aS'a husband amp father if MY UNLAWFUL'
p459
aS'SARCASM IS JUST ANOTHER SERVICE I OFFER'
p460
aS'husband amp father if MY UNLAWFUL actions'
p461
aS't be so hard on yourself Me'
p462
aS'No in fact it could cost you'
p463
aS'very very very very very very very'
p464
aS'Don t be so hard on yourself'
p465
aS'biggest known database of is here Great'
p466
aS'to innovation via No in fact it'
p467
aS'IS JUST ANOTHER SERVICE I OFFER Shop'
p468
aS'fact it could cost you big time'
p469
aS'wow I was so ugly last year'
p470
aS'known database of is here Great via'
p471
aS'via No in fact it could cost'
p472
aS'As a husband amp father if MY'
p473
aS'always leads to innovation via No in'
p474
aS'leads to innovation via No in fact'
p475
aS'The biggest known database of is here'
p476
aS'innovation via No in fact it could cost'
p477
aS'via No in fact it could cost you'
p478
aS'very very very very very very very very'
p479
aS'a husband amp father if MY UNLAWFUL actions'
p480
aS'leads to innovation via No in fact it'
p481
aS'in fact it could cost you big time'
p482
aS'Don t be so hard on yourself Me'
p483
aS'As a husband amp father if MY UNLAWFUL'
p484
aS'to innovation via No in fact it could'
p485
aS'biggest known database of is here Great via'
p486
aS'always leads to innovation via No in fact'
p487
aS'The biggest known database of is here Great'
p488
aS'No in fact it could cost you big'
p489
aS'SARCASM IS JUST ANOTHER SERVICE I OFFER Shop'
p490
aS'leads to innovation via No in fact it could'
p491
aS'always leads to innovation via No in fact it'
p492
aS'via No in fact it could cost you big'
p493
aS'No in fact it could cost you big time'
p494
aS'The biggest known database of is here Great via'
p495
aS'very very very very very very very very very'
p496
aS'As a husband amp father if MY UNLAWFUL actions'
p497
aS'innovation via No in fact it could cost you'
p498
aS'to innovation via No in fact it could cost'
p499
aS'to innovation via No in fact it could cost you'
p500
aS'via No in fact it could cost you big time'
p501
aS'very very very very very very very very very very'
p502
aS'leads to innovation via No in fact it could cost'
p503
aS'always leads to innovation via No in fact it could'
p504
aS'innovation via No in fact it could cost you big'
p505
a.